Certificate:
    Data:
        Version: 3 (0x2)
        Serial Number: 2 (0x2)
    Signature Algorithm: sha256WithRSAEncryption
        Issuer: C=CN, ST=LN, L=shenyang, O=railway, OU=MyOrganizationalUnit, CN=railway CA/name=EasyRSA/emailAddress=me@myhost.mydomain
        Validity
            Not Before: Nov 29 12:58:58 2017 GMT
            Not After : Nov 27 12:58:58 2027 GMT
        Subject: C=CN, ST=LN, L=shenyang, O=railway, OU=MyOrganizationalUnit, CN=test1/name=EasyRSA/emailAddress=me@myhost.mydomain
        Subject Public Key Info:
            Public Key Algorithm: rsaEncryption
                Public-Key: (2048 bit)
                Modulus:
                    00:c9:cf:c0:06:e3:cd:69:8b:c9:d2:ac:42:db:2f:
                    36:4f:b6:f9:ca:e5:9b:be:bf:8a:9b:fd:4e:d7:b8:
                    95:e0:03:60:1d:80:de:88:57:32:a2:89:01:eb:09:
                    0d:ff:19:c6:d0:bf:3b:53:74:52:85:33:78:c4:d8:
                    42:95:f4:23:7d:cc:d5:17:c8:53:22:76:ff:c0:36:
                    8b:26:3f:b0:b6:21:13:89:65:cd:c8:ed:39:eb:5c:
                    5b:33:89:ae:3f:ea:e0:72:45:ba:28:cd:eb:fd:93:
                    8d:96:99:9d:33:1c:d3:29:a8:58:67:51:43:04:4c:
                    20:97:77:fc:44:dd:3b:96:50:bd:2e:0b:42:c8:24:
                    b7:0b:61:83:e2:23:4a:64:08:52:64:57:dd:f3:38:
                    76:b2:82:a1:ac:b9:64:ac:d7:c6:93:29:81:ed:02:
                    98:9b:3f:69:7a:0f:25:82:a3:51:9b:39:a7:e1:6e:
                    01:76:45:94:29:b7:f2:ee:9e:f8:c0:32:a0:cd:7b:
                    19:04:c7:ad:33:98:d0:5c:9d:7c:05:1f:77:7a:b3:
                    59:20:39:8b:76:ec:d3:aa:f8:25:b8:ce:60:f2:3d:
                    3c:b2:a8:0f:9f:10:fc:f1:da:c0:84:01:5d:d6:75:
                    35:fd:e6:fd:fc:67:34:c7:75:f7:0c:bd:ca:e7:5f:
                    53:3b
                Exponent: 65537 (0x10001)
        X509v3 extensions:
            X509v3 Basic Constraints: 
                CA:FALSE
            Netscape Comment: 
                Easy-RSA Generated Certificate
            X509v3 Subject Key Identifier: 
                AF:12:B4:BE:D7:1D:7B:1C:C6:5E:13:C0:99:EE:4F:53:BE:6C:BE:E2
            X509v3 Authority Key Identifier: 
                keyid:E9:D1:0F:10:1A:06:AA:87:7B:49:79:7F:CB:38:75:8B:0E:1C:D6:05
                DirName:/C=CN/ST=LN/L=shenyang/O=railway/OU=MyOrganizationalUnit/CN=railway CA/name=EasyRSA/emailAddress=me@myhost.mydomain
                serial:CF:1A:69:D2:43:71:AB:32

            X509v3 Extended Key Usage: 
                TLS Web Client Authentication
            X509v3 Key Usage: 
                Digital Signature
            X509v3 Subject Alternative Name: 
                DNS:test1
    Signature Algorithm: sha256WithRSAEncryption
         26:c3:22:b3:39:94:a5:42:16:b3:3e:cb:97:2d:36:d6:80:50:
         17:b3:c5:d4:56:44:bf:e0:19:4f:76:a1:7e:f1:d7:97:cf:4f:
         54:d3:d3:1e:f0:18:a3:f5:96:d0:f7:93:9e:8f:33:24:07:c8:
         b4:a1:c4:f1:96:1c:32:bd:ab:a4:1d:da:ac:75:34:70:15:fc:
         a0:f0:47:bc:44:44:5b:c8:65:dd:5f:be:77:61:a8:72:df:8c:
         c8:9d:7e:a8:0e:87:19:8f:b6:14:15:4a:c3:53:60:35:95:2e:
         e4:5e:98:65:9c:00:57:7d:c3:ff:c4:74:b3:72:62:7a:81:23:
         26:3d:8c:01:fc:d6:18:e5:20:7d:b7:8b:e6:ff:1b:bb:a3:4b:
         dc:48:dd:01:a3:ce:29:21:43:43:29:b6:85:00:b4:d3:0b:89:
         d4:06:d4:8f:94:f8:1d:fb:53:f6:f2:ae:0a:0e:22:56:71:54:
         fb:53:66:30:60:7b:f9:87:9a:53:f9:0b:7c:69:52:ca:ef:9c:
         8c:1c:2c:8f:62:3d:fb:50:02:f9:7c:eb:f3:81:fa:d2:42:73:
         69:c5:d1:a3:83:af:00:88:8e:52:b6:ea:03:d1:61:aa:63:f9:
         08:7f:b9:c8:94:d8:b7:78:a0:21:f1:0f:a8:76:9a:81:9f:47:
         1a:61:78:b7
-----BEGIN CERTIFICATE-----
MIIFOzCCBCOgAwIBAgIBAjANBgkqhkiG9w0BAQsFADCBqDELMAkGA1UEBhMCQ04x
CzAJBgNVBAgTAkxOMREwDwYDVQQHEwhzaGVueWFuZzEQMA4GA1UEChMHcmFpbHdh
eTEdMBsGA1UECxMUTXlPcmdhbml6YXRpb25hbFVuaXQxEzARBgNVBAMTCnJhaWx3
YXkgQ0ExEDAOBgNVBCkTB0Vhc3lSU0ExITAfBgkqhkiG9w0BCQEWEm1lQG15aG9z
dC5teWRvbWFpbjAeFw0xNzExMjkxMjU4NThaFw0yNzExMjcxMjU4NThaMIGjMQsw
CQYDVQQGEwJDTjELMAkGA1UECBMCTE4xETAPBgNVBAcTCHNoZW55YW5nMRAwDgYD
VQQKEwdyYWlsd2F5MR0wGwYDVQQLExRNeU9yZ2FuaXphdGlvbmFsVW5pdDEOMAwG
A1UEAxMFdGVzdDExEDAOBgNVBCkTB0Vhc3lSU0ExITAfBgkqhkiG9w0BCQEWEm1l
QG15aG9zdC5teWRvbWFpbjCCASIwDQYJKoZIhvcNAQEBBQADggEPADCCAQoCggEB
AMnPwAbjzWmLydKsQtsvNk+2+crlm76/ipv9Tte4leADYB2A3ohXMqKJAesJDf8Z
xtC/O1N0UoUzeMTYQpX0I33M1RfIUyJ2/8A2iyY/sLYhE4llzcjtOetcWzOJrj/q
4HJFuijN6/2TjZaZnTMc0ymoWGdRQwRMIJd3/ETdO5ZQvS4LQsgktwthg+IjSmQI
UmRX3fM4drKCoay5ZKzXxpMpge0CmJs/aXoPJYKjUZs5p+FuAXZFlCm38u6e+MAy
oM17GQTHrTOY0FydfAUfd3qzWSA5i3bs06r4JbjOYPI9PLKoD58Q/PHawIQBXdZ1
Nf3m/fxnNMd19wy9yudfUzsCAwEAAaOCAXEwggFtMAkGA1UdEwQCMAAwLQYJYIZI
AYb4QgENBCAWHkVhc3ktUlNBIEdlbmVyYXRlZCBDZXJ0aWZpY2F0ZTAdBgNVHQ4E
FgQUrxK0vtcdexzGXhPAme5PU75svuIwgd0GA1UdIwSB1TCB0oAU6dEPEBoGqod7
SXl/yzh1iw4c1gWhga6kgaswgagxCzAJBgNVBAYTAkNOMQswCQYDVQQIEwJMTjER
MA8GA1UEBxMIc2hlbnlhbmcxEDAOBgNVBAoTB3JhaWx3YXkxHTAbBgNVBAsTFE15
T3JnYW5pemF0aW9uYWxVbml0MRMwEQYDVQQDEwpyYWlsd2F5IENBMRAwDgYDVQQp
EwdFYXN5UlNBMSEwHwYJKoZIhvcNAQkBFhJtZUBteWhvc3QubXlkb21haW6CCQDP
GmnSQ3GrMjATBgNVHSUEDDAKBggrBgEFBQcDAjALBgNVHQ8EBAMCB4AwEAYDVR0R
BAkwB4IFdGVzdDEwDQYJKoZIhvcNAQELBQADggEBACbDIrM5lKVCFrM+y5ctNtaA
UBezxdRWRL/gGU92oX7x15fPT1TT0x7wGKP1ltD3k56PMyQHyLShxPGWHDK9q6Qd
2qx1NHAV/KDwR7xERFvIZd1fvndhqHLfjMidfqgOhxmPthQVSsNTYDWVLuRemGWc
AFd9w//EdLNyYnqBIyY9jAH81hjlIH23i+b/G7ujS9xI3QGjzikhQ0MptoUAtNML
idQG1I+U+B37U/byrgoOIlZxVPtTZjBge/mHmlP5C3xpUsrvnIwcLI9iPftQAvl8
6/OB+tJCc2nF0aODrwCIjlK26gPRYapj+Qh/uciU2Ld4oCHxD6h2moGfRxpheLc=
-----END CERTIFICATE-----
